(dp0
S'count'
p1
I12
sS'pkl_consolidated_joblist'
p2
(lp3
S'024202'
p4
aS'024200'
p5
aS'024201'
p6
aS'024192'
p7
aS'024193'
p8
aS'024191'
p9
aS'024196'
p10
aS'024197'
p11
aS'024194'
p12
aS'024195'
p13
aS'024198'
p14
aS'024199'
p15
asS'pkl_filelist'
p16
(lp17
g4
ag5
ag6
ag7
ag8
ag9
ag10
ag11
ag12
ag13
ag14
ag15
asS'pkl_consolidated_dd'
p18
(dp19
g4
(dp20
S'jobprops'
p21
(dp22
S'premerge_department'
p23
S'CGI'
p24
sS'premerge_customer'
p25
S'PPS'
p26
sS'premerge_doctype'
p27
S'SNC-NBSS-INPUT'
p28
sS'premerge_pklfile'
p29
S'/adf/data/traffic/jobs/PPS/CGI/SNC-NBSS-INPUT/024202/30101424_2016-09-01_13-02-35.0_SNC_NBSS-1608310038-160831N_N_D30BBT-144.pdf.afp.pkl'
p30
ssS'pkl'
p31
(dp32
S'filemask_matched_db_record'
p33
(dp34
S'CGI_subCompanyCode'
p35
VSINGLE
p36
sS'specialInstructions'
p37
VNBSS (NON-CERTIFIED-BLACK/WHITE-SIMPLEX-SINGLE) VALIDATE THIS FILE AGAINST FILE LISTING FROM SNC VALIDATE NUMBER OF PIECES LISTED IN FILE NAME TO PACKAGES VALIDATE PRINT QUALITY/PROPER STOCK USED VALIDATE CORRECT ENVELOPES ARE LOADED EACH MAIL PIECE IS ON
p38
sS'CGI_lineOfBusiness'
p39
VHO LOAN
p40
sS'Notification'
p41
Vtrue
p42
sS'EscalationTime'
p43
V00:00:00
p44
sS'OOMLotCodeShort'
p45
V10
p46
sS'isProduction'
p47
Vtrue
p48
sS'insertMediaID'
p49
V210
p50
sS'printMediaID'
p51
V316
p52
sS'isDelete'
p53
Vfalse
p54
sS'PrintCount'
p55
V1
p56
sS'jobID'
p57
V5288
p58
sS'jobFileMask'
p59
V*SNC_NBSS-*
p60
sS'carrierID'
p61
VO46D14D3B15SB
p62
sS'outputFrequencyID'
p63
VD
p64
sS'CutoffTime'
p65
V15:00:00
p66
sS'SLAType'
p67
VCUTOFF
p68
sS'printOutputType'
p69
VMC
p70
sS'OOMProductCode'
p71
VBLK
p72
sS'SLADay'
p73
V0
p74
sS'insertPlanName'
p75
VNO_PLAN
p76
sS'OOM_companyCode'
p77
VXSC
p78
sS'CGI_lineOfBusinessDesc'
p79
VLOAN NOTICES
p80
sS'PrintType'
p81
VContinuous
p82
sS'plex'
p83
VDUPLEX
p84
sS'PrintProfileUP6'
p85
Vnull
p86
sS'envelopeID'
p87
V21
p88
sS'isManual'
p89
Vfalse
p90
sS'jobName'
p91
V*SNC_NBSS-*
p92
sS'OOMLotCode'
p93
V10E
p94
sS'SLAID'
p95
V1
p96
sS'postageID'
p97
V44
p98
sS'CGI_companyCode'
p99
VSTATE NATIONAL
p100
ssS'filemask_matched_list'
p101
(lp102
V*SNC_NBSS-*
p103
asS'ERRORMESSAGE'
p104
S''
p105
sS'filemask_longest_match'
p106
g103
sS'prd_wf_key'
p107
VSNC_NBSS-
p108
sS'inputfilename'
p109
S'30101424_2016-09-01_13-02-35.0_SNC_NBSS-1608310038-160831N_N_D30BBT-144.pdf.afp'
p110
sg61
g62
sS'inputfilepath'
p111
S'/sefas/in/30101424_2016-09-01_13-02-35.0_SNC_NBSS-1608310038-160831N_N_D30BBT-144.pdf.afp'
p112
sS'application_parameters'
p113
(dp114
S'INPUTFORMAT'
p115
S'AFP'
p116
sVINSERTPLANID_9
p117
S'000000'
p118
sVINSERTPLANID_6
p119
S'000000'
p120
sVINSERTPLANID_7
p121
S'000000'
p122
sS'ISMANUAL'
p123
g90
sVINSERTPLANID_5
p124
S'000000'
p125
sVINSERTPLANID_2
p126
S'000000'
p127
sVINSERTPLANID_3
p128
S'000000'
p129
sVINSERTPLANID_1
p130
S'000000'
p131
sS'JOBFILEMASK'
p132
g60
sS'CARRIERID'
p133
g62
sS'OOM_COMPANYCODE'
p134
g78
sS'PRDWFKEY'
p135
g108
sVINSERTPLANID_8
p136
S'000000'
p137
sS'TRANSFERDIR'
p138
S'/adf/data/traffic/transfer'
p139
sS'ENDMAILDATE'
p140
g105
sVINSERTPLANID_4
p141
S'000000'
p142
sS'OUTPUTFREQUENCYID'
p143
g64
sS'PRINTPROFILEUP6'
p144
g105
sS'PLEX'
p145
g84
sS'JOB_RECEIVED_DATE'
p146
S'20160927090011'
p147
sVINSERTPLANID_V
p148
S'000000'
p149
sVINSERTPLANID_T
p150
S'000000'
p151
sVINSERTPLANID_U
p152
S'000000'
p153
sVINSERTPLANID_R
p154
S'000000'
p155
sVINSERTPLANID_S
p156
S'000000'
p157
sVINSERTPLANID_P
p158
S'000000'
p159
sVINSERTPLANID_Q
p160
S'000000'
p161
sVINSERTPLANID_N
p162
S'000000'
p163
sVINSERTPLANID_O
p164
S'000000'
p165
sVINSERTPLANID_L
p166
S'000000'
p167
sVINSERTPLANID_M
p168
S'000000'
p169
sVINSERTPLANID_J
p170
S'000000'
p171
sVINSERTPLANID_K
p172
S'000000'
p173
sVINSERTPLANID_H
p174
S'000000'
p175
sVINSERTPLANID_I
p176
S'000000'
p177
sVINSERTPLANID_F
p178
S'000000'
p179
sVINSERTPLANID_G
p180
S'000000'
p181
sVINSERTPLANID_D
p182
S'000000'
p183
sVINSERTPLANID_E
p184
S'000000'
p185
sVINSERTPLANID_B
p186
S'000000'
p187
sVINSERTPLANID_C
p188
S'000000'
p189
sVINSERTPLANID_A
p190
S'000000'
p191
ssssg5
(dp192
g21
(dp193
g23
S'CGI'
p194
sg25
S'PPS'
p195
sg27
S'SNC-NBSS-INPUT'
p196
sg29
S'/adf/data/traffic/jobs/PPS/CGI/SNC-NBSS-INPUT/024200/30101434_2016-09-01_13-02-46.0_SNC_NBSS-1608310008-160831N_N_G83Sheboygan_Area_Credi-207.pdf.afp.pkl'
p197
ssg31
(dp198
S'filemask_matched_db_record'
p199
(dp200
S'CGI_subCompanyCode'
p201
VSINGLE
p202
sS'specialInstructions'
p203
VNBSS (NON-CERTIFIED-BLACK/WHITE-SIMPLEX-SINGLE) VALIDATE THIS FILE AGAINST FILE LISTING FROM SNC VALIDATE NUMBER OF PIECES LISTED IN FILE NAME TO PACKAGES VALIDATE PRINT QUALITY/PROPER STOCK USED VALIDATE CORRECT ENVELOPES ARE LOADED EACH MAIL PIECE IS ON
p204
sS'CGI_lineOfBusiness'
p205
VHO LOAN
p206
sS'Notification'
p207
Vtrue
p208
sS'EscalationTime'
p209
V00:00:00
p210
sS'OOMLotCodeShort'
p211
V10
p212
sS'isProduction'
p213
Vtrue
p214
sS'insertMediaID'
p215
V210
p216
sS'printMediaID'
p217
V316
p218
sS'isDelete'
p219
Vfalse
p220
sS'PrintCount'
p221
V1
p222
sS'jobID'
p223
V5288
p224
sS'jobFileMask'
p225
V*SNC_NBSS-*
p226
sS'carrierID'
p227
VO46D14D3B15SB
p228
sS'outputFrequencyID'
p229
VD
p230
sS'CutoffTime'
p231
V15:00:00
p232
sS'SLAType'
p233
VCUTOFF
p234
sS'printOutputType'
p235
VMC
p236
sS'OOMProductCode'
p237
VBLK
p238
sS'SLADay'
p239
V0
p240
sS'insertPlanName'
p241
VNO_PLAN
p242
sS'OOM_companyCode'
p243
VXSC
p244
sS'CGI_lineOfBusinessDesc'
p245
VLOAN NOTICES
p246
sS'PrintType'
p247
VContinuous
p248
sS'plex'
p249
VDUPLEX
p250
sS'PrintProfileUP6'
p251
Vnull
p252
sS'envelopeID'
p253
V21
p254
sS'isManual'
p255
Vfalse
p256
sS'jobName'
p257
V*SNC_NBSS-*
p258
sS'OOMLotCode'
p259
V10E
p260
sS'SLAID'
p261
V1
p262
sS'postageID'
p263
V44
p264
sS'CGI_companyCode'
p265
VSTATE NATIONAL
p266
ssS'filemask_matched_list'
p267
(lp268
V*SNC_NBSS-*
p269
asS'ERRORMESSAGE'
p270
g105
sS'filemask_longest_match'
p271
g269
sS'prd_wf_key'
p272
VSNC_NBSS-
p273
sS'inputfilename'
p274
S'30101434_2016-09-01_13-02-46.0_SNC_NBSS-1608310008-160831N_N_G83Sheboygan_Area_Credi-207.pdf.afp'
p275
sg227
g228
sS'inputfilepath'
p276
S'/sefas/in/30101434_2016-09-01_13-02-46.0_SNC_NBSS-1608310008-160831N_N_G83Sheboygan_Area_Credi-207.pdf.afp'
p277
sS'application_parameters'
p278
(dp279
S'INPUTFORMAT'
p280
S'AFP'
p281
sVINSERTPLANID_9
p282
S'000000'
p283
sVINSERTPLANID_6
p284
S'000000'
p285
sVINSERTPLANID_7
p286
S'000000'
p287
sS'ISMANUAL'
p288
g256
sVINSERTPLANID_5
p289
S'000000'
p290
sVINSERTPLANID_2
p291
S'000000'
p292
sVINSERTPLANID_3
p293
S'000000'
p294
sVINSERTPLANID_1
p295
S'000000'
p296
sS'JOBFILEMASK'
p297
g226
sS'CARRIERID'
p298
g228
sS'OOM_COMPANYCODE'
p299
g244
sS'PRDWFKEY'
p300
g273
sVINSERTPLANID_8
p301
S'000000'
p302
sS'TRANSFERDIR'
p303
S'/adf/data/traffic/transfer'
p304
sS'ENDMAILDATE'
p305
g105
sVINSERTPLANID_4
p306
S'000000'
p307
sS'OUTPUTFREQUENCYID'
p308
g230
sS'PRINTPROFILEUP6'
p309
g105
sS'PLEX'
p310
g250
sS'JOB_RECEIVED_DATE'
p311
S'20160927090011'
p312
sVINSERTPLANID_V
p313
S'000000'
p314
sVINSERTPLANID_T
p315
S'000000'
p316
sVINSERTPLANID_U
p317
S'000000'
p318
sVINSERTPLANID_R
p319
S'000000'
p320
sVINSERTPLANID_S
p321
S'000000'
p322
sVINSERTPLANID_P
p323
S'000000'
p324
sVINSERTPLANID_Q
p325
S'000000'
p326
sVINSERTPLANID_N
p327
S'000000'
p328
sVINSERTPLANID_O
p329
S'000000'
p330
sVINSERTPLANID_L
p331
S'000000'
p332
sVINSERTPLANID_M
p333
S'000000'
p334
sVINSERTPLANID_J
p335
S'000000'
p336
sVINSERTPLANID_K
p337
S'000000'
p338
sVINSERTPLANID_H
p339
S'000000'
p340
sVINSERTPLANID_I
p341
S'000000'
p342
sVINSERTPLANID_F
p343
S'000000'
p344
sVINSERTPLANID_G
p345
S'000000'
p346
sVINSERTPLANID_D
p347
S'000000'
p348
sVINSERTPLANID_E
p349
S'000000'
p350
sVINSERTPLANID_B
p351
S'000000'
p352
sVINSERTPLANID_C
p353
S'000000'
p354
sVINSERTPLANID_A
p355
S'000000'
p356
ssssg6
(dp357
g21
(dp358
g23
S'CGI'
p359
sg25
S'PPS'
p360
sg27
S'SNC-NBSS-INPUT'
p361
sg29
S'/adf/data/traffic/jobs/PPS/CGI/SNC-NBSS-INPUT/024201/30101438_2016-09-01_13-02-52.0_SNC_NBSS-1608310007-160831N_N_80PEverence_Federal_Cre-247.pdf.afp.pkl'
p362
ssg31
(dp363
S'filemask_matched_db_record'
p364
(dp365
S'CGI_subCompanyCode'
p366
VSINGLE
p367
sS'specialInstructions'
p368
VNBSS (NON-CERTIFIED-BLACK/WHITE-SIMPLEX-SINGLE) VALIDATE THIS FILE AGAINST FILE LISTING FROM SNC VALIDATE NUMBER OF PIECES LISTED IN FILE NAME TO PACKAGES VALIDATE PRINT QUALITY/PROPER STOCK USED VALIDATE CORRECT ENVELOPES ARE LOADED EACH MAIL PIECE IS ON
p369
sS'CGI_lineOfBusiness'
p370
VHO LOAN
p371
sS'Notification'
p372
Vtrue
p373
sS'EscalationTime'
p374
V00:00:00
p375
sS'OOMLotCodeShort'
p376
V10
p377
sS'isProduction'
p378
Vtrue
p379
sS'insertMediaID'
p380
V210
p381
sS'printMediaID'
p382
V316
p383
sS'isDelete'
p384
Vfalse
p385
sS'PrintCount'
p386
V1
p387
sS'jobID'
p388
V5288
p389
sS'jobFileMask'
p390
V*SNC_NBSS-*
p391
sS'carrierID'
p392
VO46D14D3B15SB
p393
sS'outputFrequencyID'
p394
VD
p395
sS'CutoffTime'
p396
V15:00:00
p397
sS'SLAType'
p398
VCUTOFF
p399
sS'printOutputType'
p400
VMC
p401
sS'OOMProductCode'
p402
VBLK
p403
sS'SLADay'
p404
V0
p405
sS'insertPlanName'
p406
VNO_PLAN
p407
sS'OOM_companyCode'
p408
VXSC
p409
sS'CGI_lineOfBusinessDesc'
p410
VLOAN NOTICES
p411
sS'PrintType'
p412
VContinuous
p413
sS'plex'
p414
VDUPLEX
p415
sS'PrintProfileUP6'
p416
Vnull
p417
sS'envelopeID'
p418
V21
p419
sS'isManual'
p420
Vfalse
p421
sS'jobName'
p422
V*SNC_NBSS-*
p423
sS'OOMLotCode'
p424
V10E
p425
sS'SLAID'
p426
V1
p427
sS'postageID'
p428
V44
p429
sS'CGI_companyCode'
p430
VSTATE NATIONAL
p431
ssS'filemask_matched_list'
p432
(lp433
V*SNC_NBSS-*
p434
asS'ERRORMESSAGE'
p435
g105
sS'filemask_longest_match'
p436
g434
sS'prd_wf_key'
p437
VSNC_NBSS-
p438
sS'inputfilename'
p439
S'30101438_2016-09-01_13-02-52.0_SNC_NBSS-1608310007-160831N_N_80PEverence_Federal_Cre-247.pdf.afp'
p440
sg392
g393
sS'inputfilepath'
p441
S'/sefas/in/30101438_2016-09-01_13-02-52.0_SNC_NBSS-1608310007-160831N_N_80PEverence_Federal_Cre-247.pdf.afp'
p442
sS'application_parameters'
p443
(dp444
S'INPUTFORMAT'
p445
S'AFP'
p446
sVINSERTPLANID_9
p447
S'000000'
p448
sVINSERTPLANID_6
p449
S'000000'
p450
sVINSERTPLANID_7
p451
S'000000'
p452
sS'ISMANUAL'
p453
g421
sVINSERTPLANID_5
p454
S'000000'
p455
sVINSERTPLANID_2
p456
S'000000'
p457
sVINSERTPLANID_3
p458
S'000000'
p459
sVINSERTPLANID_1
p460
S'000000'
p461
sS'JOBFILEMASK'
p462
g391
sS'CARRIERID'
p463
g393
sS'OOM_COMPANYCODE'
p464
g409
sS'PRDWFKEY'
p465
g438
sVINSERTPLANID_8
p466
S'000000'
p467
sS'TRANSFERDIR'
p468
S'/adf/data/traffic/transfer'
p469
sS'ENDMAILDATE'
p470
g105
sVINSERTPLANID_4
p471
S'000000'
p472
sS'OUTPUTFREQUENCYID'
p473
g395
sS'PRINTPROFILEUP6'
p474
g105
sS'PLEX'
p475
g415
sS'JOB_RECEIVED_DATE'
p476
S'20160927090011'
p477
sVINSERTPLANID_V
p478
S'000000'
p479
sVINSERTPLANID_T
p480
S'000000'
p481
sVINSERTPLANID_U
p482
S'000000'
p483
sVINSERTPLANID_R
p484
S'000000'
p485
sVINSERTPLANID_S
p486
S'000000'
p487
sVINSERTPLANID_P
p488
S'000000'
p489
sVINSERTPLANID_Q
p490
S'000000'
p491
sVINSERTPLANID_N
p492
S'000000'
p493
sVINSERTPLANID_O
p494
S'000000'
p495
sVINSERTPLANID_L
p496
S'000000'
p497
sVINSERTPLANID_M
p498
S'000000'
p499
sVINSERTPLANID_J
p500
S'000000'
p501
sVINSERTPLANID_K
p502
S'000000'
p503
sVINSERTPLANID_H
p504
S'000000'
p505
sVINSERTPLANID_I
p506
S'000000'
p507
sVINSERTPLANID_F
p508
S'000000'
p509
sVINSERTPLANID_G
p510
S'000000'
p511
sVINSERTPLANID_D
p512
S'000000'
p513
sVINSERTPLANID_E
p514
S'000000'
p515
sVINSERTPLANID_B
p516
S'000000'
p517
sVINSERTPLANID_C
p518
S'000000'
p519
sVINSERTPLANID_A
p520
S'000000'
p521
ssssg7
(dp522
g21
(dp523
g23
S'CGI'
p524
sg25
S'PPS'
p525
sg27
S'SNC-NBSS-INPUT'
p526
sg29
S'/adf/data/traffic/jobs/PPS/CGI/SNC-NBSS-INPUT/024192/30101420_2016-09-01_13-02-50.0_SNC_NBSS-1608310004-160831N_N_83FSikorsky_Financial_C-233.pdf.afp.pkl'
p527
ssg31
(dp528
S'filemask_matched_db_record'
p529
(dp530
S'CGI_subCompanyCode'
p531
VSINGLE
p532
sS'specialInstructions'
p533
VNBSS (NON-CERTIFIED-BLACK/WHITE-SIMPLEX-SINGLE) VALIDATE THIS FILE AGAINST FILE LISTING FROM SNC VALIDATE NUMBER OF PIECES LISTED IN FILE NAME TO PACKAGES VALIDATE PRINT QUALITY/PROPER STOCK USED VALIDATE CORRECT ENVELOPES ARE LOADED EACH MAIL PIECE IS ON
p534
sS'CGI_lineOfBusiness'
p535
VHO LOAN
p536
sS'Notification'
p537
Vtrue
p538
sS'EscalationTime'
p539
V00:00:00
p540
sS'OOMLotCodeShort'
p541
V10
p542
sS'isProduction'
p543
Vtrue
p544
sS'insertMediaID'
p545
V210
p546
sS'printMediaID'
p547
V316
p548
sS'isDelete'
p549
Vfalse
p550
sS'PrintCount'
p551
V1
p552
sS'jobID'
p553
V5288
p554
sS'jobFileMask'
p555
V*SNC_NBSS-*
p556
sS'carrierID'
p557
VO46D14D3B15SB
p558
sS'outputFrequencyID'
p559
VD
p560
sS'CutoffTime'
p561
V15:00:00
p562
sS'SLAType'
p563
VCUTOFF
p564
sS'printOutputType'
p565
VMC
p566
sS'OOMProductCode'
p567
VBLK
p568
sS'SLADay'
p569
V0
p570
sS'insertPlanName'
p571
VNO_PLAN
p572
sS'OOM_companyCode'
p573
VXSC
p574
sS'CGI_lineOfBusinessDesc'
p575
VLOAN NOTICES
p576
sS'PrintType'
p577
VContinuous
p578
sS'plex'
p579
VDUPLEX
p580
sS'PrintProfileUP6'
p581
Vnull
p582
sS'envelopeID'
p583
V21
p584
sS'isManual'
p585
Vfalse
p586
sS'jobName'
p587
V*SNC_NBSS-*
p588
sS'OOMLotCode'
p589
V10E
p590
sS'SLAID'
p591
V1
p592
sS'postageID'
p593
V44
p594
sS'CGI_companyCode'
p595
VSTATE NATIONAL
p596
ssS'filemask_matched_list'
p597
(lp598
V*SNC_NBSS-*
p599
asS'ERRORMESSAGE'
p600
g105
sS'filemask_longest_match'
p601
g599
sS'prd_wf_key'
p602
VSNC_NBSS-
p603
sS'inputfilename'
p604
S'30101420_2016-09-01_13-02-50.0_SNC_NBSS-1608310004-160831N_N_83FSikorsky_Financial_C-233.pdf.afp'
p605
sg557
g558
sS'inputfilepath'
p606
S'/sefas/in/30101420_2016-09-01_13-02-50.0_SNC_NBSS-1608310004-160831N_N_83FSikorsky_Financial_C-233.pdf.afp'
p607
sS'application_parameters'
p608
(dp609
S'INPUTFORMAT'
p610
S'AFP'
p611
sVINSERTPLANID_9
p612
S'000000'
p613
sVINSERTPLANID_6
p614
S'000000'
p615
sVINSERTPLANID_7
p616
S'000000'
p617
sS'ISMANUAL'
p618
g586
sVINSERTPLANID_5
p619
S'000000'
p620
sVINSERTPLANID_2
p621
S'000000'
p622
sVINSERTPLANID_3
p623
S'000000'
p624
sVINSERTPLANID_1
p625
S'000000'
p626
sS'JOBFILEMASK'
p627
g556
sS'CARRIERID'
p628
g558
sS'OOM_COMPANYCODE'
p629
g574
sS'PRDWFKEY'
p630
g603
sVINSERTPLANID_8
p631
S'000000'
p632
sS'TRANSFERDIR'
p633
S'/adf/data/traffic/transfer'
p634
sS'ENDMAILDATE'
p635
g105
sVINSERTPLANID_4
p636
S'000000'
p637
sS'OUTPUTFREQUENCYID'
p638
g560
sS'PRINTPROFILEUP6'
p639
g105
sS'PLEX'
p640
g580
sS'JOB_RECEIVED_DATE'
p641
S'20160927090011'
p642
sVINSERTPLANID_V
p643
S'000000'
p644
sVINSERTPLANID_T
p645
S'000000'
p646
sVINSERTPLANID_U
p647
S'000000'
p648
sVINSERTPLANID_R
p649
S'000000'
p650
sVINSERTPLANID_S
p651
S'000000'
p652
sVINSERTPLANID_P
p653
S'000000'
p654
sVINSERTPLANID_Q
p655
S'000000'
p656
sVINSERTPLANID_N
p657
S'000000'
p658
sVINSERTPLANID_O
p659
S'000000'
p660
sVINSERTPLANID_L
p661
S'000000'
p662
sVINSERTPLANID_M
p663
S'000000'
p664
sVINSERTPLANID_J
p665
S'000000'
p666
sVINSERTPLANID_K
p667
S'000000'
p668
sVINSERTPLANID_H
p669
S'000000'
p670
sVINSERTPLANID_I
p671
S'000000'
p672
sVINSERTPLANID_F
p673
S'000000'
p674
sVINSERTPLANID_G
p675
S'000000'
p676
sVINSERTPLANID_D
p677
S'000000'
p678
sVINSERTPLANID_E
p679
S'000000'
p680
sVINSERTPLANID_B
p681
S'000000'
p682
sVINSERTPLANID_C
p683
S'000000'
p684
sVINSERTPLANID_A
p685
S'000000'
p686
ssssg8
(dp687
g21
(dp688
g23
S'CGI'
p689
sg25
S'PPS'
p690
sg27
S'SNC-NBSS-INPUT'
p691
sg29
S'/adf/data/traffic/jobs/PPS/CGI/SNC-NBSS-INPUT/024193/30101406_2016-09-01_13-02-34.0_SNC_NBSS-1608310002-160831N_N_G44URW_Community_FCU-137.pdf.afp.pkl'
p692
ssg31
(dp693
S'filemask_matched_db_record'
p694
(dp695
S'CGI_subCompanyCode'
p696
VSINGLE
p697
sS'specialInstructions'
p698
VNBSS (NON-CERTIFIED-BLACK/WHITE-SIMPLEX-SINGLE) VALIDATE THIS FILE AGAINST FILE LISTING FROM SNC VALIDATE NUMBER OF PIECES LISTED IN FILE NAME TO PACKAGES VALIDATE PRINT QUALITY/PROPER STOCK USED VALIDATE CORRECT ENVELOPES ARE LOADED EACH MAIL PIECE IS ON
p699
sS'CGI_lineOfBusiness'
p700
VHO LOAN
p701
sS'Notification'
p702
Vtrue
p703
sS'EscalationTime'
p704
V00:00:00
p705
sS'OOMLotCodeShort'
p706
V10
p707
sS'isProduction'
p708
Vtrue
p709
sS'insertMediaID'
p710
V210
p711
sS'printMediaID'
p712
V316
p713
sS'isDelete'
p714
Vfalse
p715
sS'PrintCount'
p716
V1
p717
sS'jobID'
p718
V5288
p719
sS'jobFileMask'
p720
V*SNC_NBSS-*
p721
sS'carrierID'
p722
VO46D14D3B15SB
p723
sS'outputFrequencyID'
p724
VD
p725
sS'CutoffTime'
p726
V15:00:00
p727
sS'SLAType'
p728
VCUTOFF
p729
sS'printOutputType'
p730
VMC
p731
sS'OOMProductCode'
p732
VBLK
p733
sS'SLADay'
p734
V0
p735
sS'insertPlanName'
p736
VNO_PLAN
p737
sS'OOM_companyCode'
p738
VXSC
p739
sS'CGI_lineOfBusinessDesc'
p740
VLOAN NOTICES
p741
sS'PrintType'
p742
VContinuous
p743
sS'plex'
p744
VDUPLEX
p745
sS'PrintProfileUP6'
p746
Vnull
p747
sS'envelopeID'
p748
V21
p749
sS'isManual'
p750
Vfalse
p751
sS'jobName'
p752
V*SNC_NBSS-*
p753
sS'OOMLotCode'
p754
V10E
p755
sS'SLAID'
p756
V1
p757
sS'postageID'
p758
V44
p759
sS'CGI_companyCode'
p760
VSTATE NATIONAL
p761
ssS'filemask_matched_list'
p762
(lp763
V*SNC_NBSS-*
p764
asS'ERRORMESSAGE'
p765
g105
sS'filemask_longest_match'
p766
g764
sS'prd_wf_key'
p767
VSNC_NBSS-
p768
sS'inputfilename'
p769
S'30101406_2016-09-01_13-02-34.0_SNC_NBSS-1608310002-160831N_N_G44URW_Community_FCU-137.pdf.afp'
p770
sg722
g723
sS'inputfilepath'
p771
S'/sefas/in/30101406_2016-09-01_13-02-34.0_SNC_NBSS-1608310002-160831N_N_G44URW_Community_FCU-137.pdf.afp'
p772
sS'application_parameters'
p773
(dp774
S'INPUTFORMAT'
p775
S'AFP'
p776
sVINSERTPLANID_9
p777
S'000000'
p778
sVINSERTPLANID_6
p779
S'000000'
p780
sVINSERTPLANID_7
p781
S'000000'
p782
sS'ISMANUAL'
p783
g751
sVINSERTPLANID_5
p784
S'000000'
p785
sVINSERTPLANID_2
p786
S'000000'
p787
sVINSERTPLANID_3
p788
S'000000'
p789
sVINSERTPLANID_1
p790
S'000000'
p791
sS'JOBFILEMASK'
p792
g721
sS'CARRIERID'
p793
g723
sS'OOM_COMPANYCODE'
p794
g739
sS'PRDWFKEY'
p795
g768
sVINSERTPLANID_8
p796
S'000000'
p797
sS'TRANSFERDIR'
p798
S'/adf/data/traffic/transfer'
p799
sS'ENDMAILDATE'
p800
g105
sVINSERTPLANID_4
p801
S'000000'
p802
sS'OUTPUTFREQUENCYID'
p803
g725
sS'PRINTPROFILEUP6'
p804
g105
sS'PLEX'
p805
g745
sS'JOB_RECEIVED_DATE'
p806
S'20160927090011'
p807
sVINSERTPLANID_V
p808
S'000000'
p809
sVINSERTPLANID_T
p810
S'000000'
p811
sVINSERTPLANID_U
p812
S'000000'
p813
sVINSERTPLANID_R
p814
S'000000'
p815
sVINSERTPLANID_S
p816
S'000000'
p817
sVINSERTPLANID_P
p818
S'000000'
p819
sVINSERTPLANID_Q
p820
S'000000'
p821
sVINSERTPLANID_N
p822
S'000000'
p823
sVINSERTPLANID_O
p824
S'000000'
p825
sVINSERTPLANID_L
p826
S'000000'
p827
sVINSERTPLANID_M
p828
S'000000'
p829
sVINSERTPLANID_J
p830
S'000000'
p831
sVINSERTPLANID_K
p832
S'000000'
p833
sVINSERTPLANID_H
p834
S'000000'
p835
sVINSERTPLANID_I
p836
S'000000'
p837
sVINSERTPLANID_F
p838
S'000000'
p839
sVINSERTPLANID_G
p840
S'000000'
p841
sVINSERTPLANID_D
p842
S'000000'
p843
sVINSERTPLANID_E
p844
S'000000'
p845
sVINSERTPLANID_B
p846
S'000000'
p847
sVINSERTPLANID_C
p848
S'000000'
p849
sVINSERTPLANID_A
p850
S'000000'
p851
ssssg9
(dp852
g21
(dp853
g23
S'CGI'
p854
sg25
S'PPS'
p855
sg27
S'SNC-NBSS-INPUT'
p856
sg29
S'/adf/data/traffic/jobs/PPS/CGI/SNC-NBSS-INPUT/024191/30101396_2016-09-01_13-02-45.0_SNC_NBSS-1608310001-160831N_N_A21MidFirst_Bank-204.pdf.afp.pkl'
p857
ssg31
(dp858
S'filemask_matched_db_record'
p859
(dp860
S'CGI_subCompanyCode'
p861
VSINGLE
p862
sS'specialInstructions'
p863
VNBSS (NON-CERTIFIED-BLACK/WHITE-SIMPLEX-SINGLE) VALIDATE THIS FILE AGAINST FILE LISTING FROM SNC VALIDATE NUMBER OF PIECES LISTED IN FILE NAME TO PACKAGES VALIDATE PRINT QUALITY/PROPER STOCK USED VALIDATE CORRECT ENVELOPES ARE LOADED EACH MAIL PIECE IS ON
p864
sS'CGI_lineOfBusiness'
p865
VHO LOAN
p866
sS'Notification'
p867
Vtrue
p868
sS'EscalationTime'
p869
V00:00:00
p870
sS'OOMLotCodeShort'
p871
V10
p872
sS'isProduction'
p873
Vtrue
p874
sS'insertMediaID'
p875
V210
p876
sS'printMediaID'
p877
V316
p878
sS'isDelete'
p879
Vfalse
p880
sS'PrintCount'
p881
V1
p882
sS'jobID'
p883
V5288
p884
sS'jobFileMask'
p885
V*SNC_NBSS-*
p886
sS'carrierID'
p887
VO46D14D3B15SB
p888
sS'outputFrequencyID'
p889
VD
p890
sS'CutoffTime'
p891
V15:00:00
p892
sS'SLAType'
p893
VCUTOFF
p894
sS'printOutputType'
p895
VMC
p896
sS'OOMProductCode'
p897
VBLK
p898
sS'SLADay'
p899
V0
p900
sS'insertPlanName'
p901
VNO_PLAN
p902
sS'OOM_companyCode'
p903
VXSC
p904
sS'CGI_lineOfBusinessDesc'
p905
VLOAN NOTICES
p906
sS'PrintType'
p907
VContinuous
p908
sS'plex'
p909
VDUPLEX
p910
sS'PrintProfileUP6'
p911
Vnull
p912
sS'envelopeID'
p913
V21
p914
sS'isManual'
p915
Vfalse
p916
sS'jobName'
p917
V*SNC_NBSS-*
p918
sS'OOMLotCode'
p919
V10E
p920
sS'SLAID'
p921
V1
p922
sS'postageID'
p923
V44
p924
sS'CGI_companyCode'
p925
VSTATE NATIONAL
p926
ssS'filemask_matched_list'
p927
(lp928
V*SNC_NBSS-*
p929
asS'ERRORMESSAGE'
p930
g105
sS'filemask_longest_match'
p931
g929
sS'prd_wf_key'
p932
VSNC_NBSS-
p933
sS'inputfilename'
p934
S'30101396_2016-09-01_13-02-45.0_SNC_NBSS-1608310001-160831N_N_A21MidFirst_Bank-204.pdf.afp'
p935
sg887
g888
sS'inputfilepath'
p936
S'/sefas/in/30101396_2016-09-01_13-02-45.0_SNC_NBSS-1608310001-160831N_N_A21MidFirst_Bank-204.pdf.afp'
p937
sS'application_parameters'
p938
(dp939
S'INPUTFORMAT'
p940
S'AFP'
p941
sVINSERTPLANID_9
p942
S'000000'
p943
sVINSERTPLANID_6
p944
S'000000'
p945
sVINSERTPLANID_7
p946
S'000000'
p947
sS'ISMANUAL'
p948
g916
sVINSERTPLANID_5
p949
S'000000'
p950
sVINSERTPLANID_2
p951
S'000000'
p952
sVINSERTPLANID_3
p953
S'000000'
p954
sVINSERTPLANID_1
p955
S'000000'
p956
sS'JOBFILEMASK'
p957
g886
sS'CARRIERID'
p958
g888
sS'OOM_COMPANYCODE'
p959
g904
sS'PRDWFKEY'
p960
g933
sVINSERTPLANID_8
p961
S'000000'
p962
sS'TRANSFERDIR'
p963
S'/adf/data/traffic/transfer'
p964
sS'ENDMAILDATE'
p965
g105
sVINSERTPLANID_4
p966
S'000000'
p967
sS'OUTPUTFREQUENCYID'
p968
g890
sS'PRINTPROFILEUP6'
p969
g105
sS'PLEX'
p970
g910
sS'JOB_RECEIVED_DATE'
p971
S'20160927090011'
p972
sVINSERTPLANID_V
p973
S'000000'
p974
sVINSERTPLANID_T
p975
S'000000'
p976
sVINSERTPLANID_U
p977
S'000000'
p978
sVINSERTPLANID_R
p979
S'000000'
p980
sVINSERTPLANID_S
p981
S'000000'
p982
sVINSERTPLANID_P
p983
S'000000'
p984
sVINSERTPLANID_Q
p985
S'000000'
p986
sVINSERTPLANID_N
p987
S'000000'
p988
sVINSERTPLANID_O
p989
S'000000'
p990
sVINSERTPLANID_L
p991
S'000000'
p992
sVINSERTPLANID_M
p993
S'000000'
p994
sVINSERTPLANID_J
p995
S'000000'
p996
sVINSERTPLANID_K
p997
S'000000'
p998
sVINSERTPLANID_H
p999
S'000000'
p1000
sVINSERTPLANID_I
p1001
S'000000'
p1002
sVINSERTPLANID_F
p1003
S'000000'
p1004
sVINSERTPLANID_G
p1005
S'000000'
p1006
sVINSERTPLANID_D
p1007
S'000000'
p1008
sVINSERTPLANID_E
p1009
S'000000'
p1010
sVINSERTPLANID_B
p1011
S'000000'
p1012
sVINSERTPLANID_C
p1013
S'000000'
p1014
sVINSERTPLANID_A
p1015
S'000000'
p1016
ssssg10
(dp1017
g21
(dp1018
g23
S'CGI'
p1019
sg25
S'PPS'
p1020
sg27
S'SNC-NBSS-INPUT'
p1021
sg29
S'/adf/data/traffic/jobs/PPS/CGI/SNC-NBSS-INPUT/024196/30101447_2016-09-01_13-02-43.0_SNC_NBSS-1608310027-160831N_N_85VFAA_Federal_Credit_U-192.pdf.afp.pkl'
p1022
ssg31
(dp1023
S'filemask_matched_db_record'
p1024
(dp1025
S'CGI_subCompanyCode'
p1026
VSINGLE
p1027
sS'specialInstructions'
p1028
VNBSS (NON-CERTIFIED-BLACK/WHITE-SIMPLEX-SINGLE) VALIDATE THIS FILE AGAINST FILE LISTING FROM SNC VALIDATE NUMBER OF PIECES LISTED IN FILE NAME TO PACKAGES VALIDATE PRINT QUALITY/PROPER STOCK USED VALIDATE CORRECT ENVELOPES ARE LOADED EACH MAIL PIECE IS ON
p1029
sS'CGI_lineOfBusiness'
p1030
VHO LOAN
p1031
sS'Notification'
p1032
Vtrue
p1033
sS'EscalationTime'
p1034
V00:00:00
p1035
sS'OOMLotCodeShort'
p1036
V10
p1037
sS'isProduction'
p1038
Vtrue
p1039
sS'insertMediaID'
p1040
V210
p1041
sS'printMediaID'
p1042
V316
p1043
sS'isDelete'
p1044
Vfalse
p1045
sS'PrintCount'
p1046
V1
p1047
sS'jobID'
p1048
V5288
p1049
sS'jobFileMask'
p1050
V*SNC_NBSS-*
p1051
sS'carrierID'
p1052
VO46D14D3B15SB
p1053
sS'outputFrequencyID'
p1054
VD
p1055
sS'CutoffTime'
p1056
V15:00:00
p1057
sS'SLAType'
p1058
VCUTOFF
p1059
sS'printOutputType'
p1060
VMC
p1061
sS'OOMProductCode'
p1062
VBLK
p1063
sS'SLADay'
p1064
V0
p1065
sS'insertPlanName'
p1066
VNO_PLAN
p1067
sS'OOM_companyCode'
p1068
VXSC
p1069
sS'CGI_lineOfBusinessDesc'
p1070
VLOAN NOTICES
p1071
sS'PrintType'
p1072
VContinuous
p1073
sS'plex'
p1074
VDUPLEX
p1075
sS'PrintProfileUP6'
p1076
Vnull
p1077
sS'envelopeID'
p1078
V21
p1079
sS'isManual'
p1080
Vfalse
p1081
sS'jobName'
p1082
V*SNC_NBSS-*
p1083
sS'OOMLotCode'
p1084
V10E
p1085
sS'SLAID'
p1086
V1
p1087
sS'postageID'
p1088
V44
p1089
sS'CGI_companyCode'
p1090
VSTATE NATIONAL
p1091
ssS'filemask_matched_list'
p1092
(lp1093
V*SNC_NBSS-*
p1094
asS'ERRORMESSAGE'
p1095
g105
sS'filemask_longest_match'
p1096
g1094
sS'prd_wf_key'
p1097
VSNC_NBSS-
p1098
sS'inputfilename'
p1099
S'30101447_2016-09-01_13-02-43.0_SNC_NBSS-1608310027-160831N_N_85VFAA_Federal_Credit_U-192.pdf.afp'
p1100
sg1052
g1053
sS'inputfilepath'
p1101
S'/sefas/in/30101447_2016-09-01_13-02-43.0_SNC_NBSS-1608310027-160831N_N_85VFAA_Federal_Credit_U-192.pdf.afp'
p1102
sS'application_parameters'
p1103
(dp1104
S'INPUTFORMAT'
p1105
S'AFP'
p1106
sVINSERTPLANID_9
p1107
S'000000'
p1108
sVINSERTPLANID_6
p1109
S'000000'
p1110
sVINSERTPLANID_7
p1111
S'000000'
p1112
sS'ISMANUAL'
p1113
g1081
sVINSERTPLANID_5
p1114
S'000000'
p1115
sVINSERTPLANID_2
p1116
S'000000'
p1117
sVINSERTPLANID_3
p1118
S'000000'
p1119
sVINSERTPLANID_1
p1120
S'000000'
p1121
sS'JOBFILEMASK'
p1122
g1051
sS'CARRIERID'
p1123
g1053
sS'OOM_COMPANYCODE'
p1124
g1069
sS'PRDWFKEY'
p1125
g1098
sVINSERTPLANID_8
p1126
S'000000'
p1127
sS'TRANSFERDIR'
p1128
S'/adf/data/traffic/transfer'
p1129
sS'ENDMAILDATE'
p1130
g105
sVINSERTPLANID_4
p1131
S'000000'
p1132
sS'OUTPUTFREQUENCYID'
p1133
g1055
sS'PRINTPROFILEUP6'
p1134
g105
sS'PLEX'
p1135
g1075
sS'JOB_RECEIVED_DATE'
p1136
S'20160927090011'
p1137
sVINSERTPLANID_V
p1138
S'000000'
p1139
sVINSERTPLANID_T
p1140
S'000000'
p1141
sVINSERTPLANID_U
p1142
S'000000'
p1143
sVINSERTPLANID_R
p1144
S'000000'
p1145
sVINSERTPLANID_S
p1146
S'000000'
p1147
sVINSERTPLANID_P
p1148
S'000000'
p1149
sVINSERTPLANID_Q
p1150
S'000000'
p1151
sVINSERTPLANID_N
p1152
S'000000'
p1153
sVINSERTPLANID_O
p1154
S'000000'
p1155
sVINSERTPLANID_L
p1156
S'000000'
p1157
sVINSERTPLANID_M
p1158
S'000000'
p1159
sVINSERTPLANID_J
p1160
S'000000'
p1161
sVINSERTPLANID_K
p1162
S'000000'
p1163
sVINSERTPLANID_H
p1164
S'000000'
p1165
sVINSERTPLANID_I
p1166
S'000000'
p1167
sVINSERTPLANID_F
p1168
S'000000'
p1169
sVINSERTPLANID_G
p1170
S'000000'
p1171
sVINSERTPLANID_D
p1172
S'000000'
p1173
sVINSERTPLANID_E
p1174
S'000000'
p1175
sVINSERTPLANID_B
p1176
S'000000'
p1177
sVINSERTPLANID_C
p1178
S'000000'
p1179
sVINSERTPLANID_A
p1180
S'000000'
p1181
ssssg11
(dp1182
g21
(dp1183
g23
S'CGI'
p1184
sg25
S'PPS'
p1185
sg27
S'SNC-NBSS-INPUT'
p1186
sg29
S'/adf/data/traffic/jobs/PPS/CGI/SNC-NBSS-INPUT/024197/30101431_2016-09-01_13-02-45.0_SNC_NBSS-1608310005-160831N_N_W78Heritage_Credit_Unio-199.pdf.afp.pkl'
p1187
ssg31
(dp1188
S'filemask_matched_db_record'
p1189
(dp1190
S'CGI_subCompanyCode'
p1191
VSINGLE
p1192
sS'specialInstructions'
p1193
VNBSS (NON-CERTIFIED-BLACK/WHITE-SIMPLEX-SINGLE) VALIDATE THIS FILE AGAINST FILE LISTING FROM SNC VALIDATE NUMBER OF PIECES LISTED IN FILE NAME TO PACKAGES VALIDATE PRINT QUALITY/PROPER STOCK USED VALIDATE CORRECT ENVELOPES ARE LOADED EACH MAIL PIECE IS ON
p1194
sS'CGI_lineOfBusiness'
p1195
VHO LOAN
p1196
sS'Notification'
p1197
Vtrue
p1198
sS'EscalationTime'
p1199
V00:00:00
p1200
sS'OOMLotCodeShort'
p1201
V10
p1202
sS'isProduction'
p1203
Vtrue
p1204
sS'insertMediaID'
p1205
V210
p1206
sS'printMediaID'
p1207
V316
p1208
sS'isDelete'
p1209
Vfalse
p1210
sS'PrintCount'
p1211
V1
p1212
sS'jobID'
p1213
V5288
p1214
sS'jobFileMask'
p1215
V*SNC_NBSS-*
p1216
sS'carrierID'
p1217
VO46D14D3B15SB
p1218
sS'outputFrequencyID'
p1219
VD
p1220
sS'CutoffTime'
p1221
V15:00:00
p1222
sS'SLAType'
p1223
VCUTOFF
p1224
sS'printOutputType'
p1225
VMC
p1226
sS'OOMProductCode'
p1227
VBLK
p1228
sS'SLADay'
p1229
V0
p1230
sS'insertPlanName'
p1231
VNO_PLAN
p1232
sS'OOM_companyCode'
p1233
VXSC
p1234
sS'CGI_lineOfBusinessDesc'
p1235
VLOAN NOTICES
p1236
sS'PrintType'
p1237
VContinuous
p1238
sS'plex'
p1239
VDUPLEX
p1240
sS'PrintProfileUP6'
p1241
Vnull
p1242
sS'envelopeID'
p1243
V21
p1244
sS'isManual'
p1245
Vfalse
p1246
sS'jobName'
p1247
V*SNC_NBSS-*
p1248
sS'OOMLotCode'
p1249
V10E
p1250
sS'SLAID'
p1251
V1
p1252
sS'postageID'
p1253
V44
p1254
sS'CGI_companyCode'
p1255
VSTATE NATIONAL
p1256
ssS'filemask_matched_list'
p1257
(lp1258
V*SNC_NBSS-*
p1259
asS'ERRORMESSAGE'
p1260
g105
sS'filemask_longest_match'
p1261
g1259
sS'prd_wf_key'
p1262
VSNC_NBSS-
p1263
sS'inputfilename'
p1264
S'30101431_2016-09-01_13-02-45.0_SNC_NBSS-1608310005-160831N_N_W78Heritage_Credit_Unio-199.pdf.afp'
p1265
sg1217
g1218
sS'inputfilepath'
p1266
S'/sefas/in/30101431_2016-09-01_13-02-45.0_SNC_NBSS-1608310005-160831N_N_W78Heritage_Credit_Unio-199.pdf.afp'
p1267
sS'application_parameters'
p1268
(dp1269
S'INPUTFORMAT'
p1270
S'AFP'
p1271
sVINSERTPLANID_9
p1272
S'000000'
p1273
sVINSERTPLANID_6
p1274
S'000000'
p1275
sVINSERTPLANID_7
p1276
S'000000'
p1277
sS'ISMANUAL'
p1278
g1246
sVINSERTPLANID_5
p1279
S'000000'
p1280
sVINSERTPLANID_2
p1281
S'000000'
p1282
sVINSERTPLANID_3
p1283
S'000000'
p1284
sVINSERTPLANID_1
p1285
S'000000'
p1286
sS'JOBFILEMASK'
p1287
g1216
sS'CARRIERID'
p1288
g1218
sS'OOM_COMPANYCODE'
p1289
g1234
sS'PRDWFKEY'
p1290
g1263
sVINSERTPLANID_8
p1291
S'000000'
p1292
sS'TRANSFERDIR'
p1293
S'/adf/data/traffic/transfer'
p1294
sS'ENDMAILDATE'
p1295
g105
sVINSERTPLANID_4
p1296
S'000000'
p1297
sS'OUTPUTFREQUENCYID'
p1298
g1220
sS'PRINTPROFILEUP6'
p1299
g105
sS'PLEX'
p1300
g1240
sS'JOB_RECEIVED_DATE'
p1301
S'20160927090011'
p1302
sVINSERTPLANID_V
p1303
S'000000'
p1304
sVINSERTPLANID_T
p1305
S'000000'
p1306
sVINSERTPLANID_U
p1307
S'000000'
p1308
sVINSERTPLANID_R
p1309
S'000000'
p1310
sVINSERTPLANID_S
p1311
S'000000'
p1312
sVINSERTPLANID_P
p1313
S'000000'
p1314
sVINSERTPLANID_Q
p1315
S'000000'
p1316
sVINSERTPLANID_N
p1317
S'000000'
p1318
sVINSERTPLANID_O
p1319
S'000000'
p1320
sVINSERTPLANID_L
p1321
S'000000'
p1322
sVINSERTPLANID_M
p1323
S'000000'
p1324
sVINSERTPLANID_J
p1325
S'000000'
p1326
sVINSERTPLANID_K
p1327
S'000000'
p1328
sVINSERTPLANID_H
p1329
S'000000'
p1330
sVINSERTPLANID_I
p1331
S'000000'
p1332
sVINSERTPLANID_F
p1333
S'000000'
p1334
sVINSERTPLANID_G
p1335
S'000000'
p1336
sVINSERTPLANID_D
p1337
S'000000'
p1338
sVINSERTPLANID_E
p1339
S'000000'
p1340
sVINSERTPLANID_B
p1341
S'000000'
p1342
sVINSERTPLANID_C
p1343
S'000000'
p1344
sVINSERTPLANID_A
p1345
S'000000'
p1346
ssssg12
(dp1347
g21
(dp1348
g23
S'CGI'
p1349
sg25
S'PPS'
p1350
sg27
S'SNC-NBSS-INPUT'
p1351
sg29
S'/adf/data/traffic/jobs/PPS/CGI/SNC-NBSS-INPUT/024194/30101467_2016-09-01_13-02-40.0_SNC_NBSS-1608310172-160831N_N_37WAzura_Credit_Union-174.pdf.afp.pkl'
p1352
ssg31
(dp1353
S'filemask_matched_db_record'
p1354
(dp1355
S'CGI_subCompanyCode'
p1356
VSINGLE
p1357
sS'specialInstructions'
p1358
VNBSS (NON-CERTIFIED-BLACK/WHITE-SIMPLEX-SINGLE) VALIDATE THIS FILE AGAINST FILE LISTING FROM SNC VALIDATE NUMBER OF PIECES LISTED IN FILE NAME TO PACKAGES VALIDATE PRINT QUALITY/PROPER STOCK USED VALIDATE CORRECT ENVELOPES ARE LOADED EACH MAIL PIECE IS ON
p1359
sS'CGI_lineOfBusiness'
p1360
VHO LOAN
p1361
sS'Notification'
p1362
Vtrue
p1363
sS'EscalationTime'
p1364
V00:00:00
p1365
sS'OOMLotCodeShort'
p1366
V10
p1367
sS'isProduction'
p1368
Vtrue
p1369
sS'insertMediaID'
p1370
V210
p1371
sS'printMediaID'
p1372
V316
p1373
sS'isDelete'
p1374
Vfalse
p1375
sS'PrintCount'
p1376
V1
p1377
sS'jobID'
p1378
V5288
p1379
sS'jobFileMask'
p1380
V*SNC_NBSS-*
p1381
sS'carrierID'
p1382
VO46D14D3B15SB
p1383
sS'outputFrequencyID'
p1384
VD
p1385
sS'CutoffTime'
p1386
V15:00:00
p1387
sS'SLAType'
p1388
VCUTOFF
p1389
sS'printOutputType'
p1390
VMC
p1391
sS'OOMProductCode'
p1392
VBLK
p1393
sS'SLADay'
p1394
V0
p1395
sS'insertPlanName'
p1396
VNO_PLAN
p1397
sS'OOM_companyCode'
p1398
VXSC
p1399
sS'CGI_lineOfBusinessDesc'
p1400
VLOAN NOTICES
p1401
sS'PrintType'
p1402
VContinuous
p1403
sS'plex'
p1404
VDUPLEX
p1405
sS'PrintProfileUP6'
p1406
Vnull
p1407
sS'envelopeID'
p1408
V21
p1409
sS'isManual'
p1410
Vfalse
p1411
sS'jobName'
p1412
V*SNC_NBSS-*
p1413
sS'OOMLotCode'
p1414
V10E
p1415
sS'SLAID'
p1416
V1
p1417
sS'postageID'
p1418
V44
p1419
sS'CGI_companyCode'
p1420
VSTATE NATIONAL
p1421
ssS'filemask_matched_list'
p1422
(lp1423
V*SNC_NBSS-*
p1424
asS'ERRORMESSAGE'
p1425
g105
sS'filemask_longest_match'
p1426
g1424
sS'prd_wf_key'
p1427
VSNC_NBSS-
p1428
sS'inputfilename'
p1429
S'30101467_2016-09-01_13-02-40.0_SNC_NBSS-1608310172-160831N_N_37WAzura_Credit_Union-174.pdf.afp'
p1430
sg1382
g1383
sS'inputfilepath'
p1431
S'/sefas/in/30101467_2016-09-01_13-02-40.0_SNC_NBSS-1608310172-160831N_N_37WAzura_Credit_Union-174.pdf.afp'
p1432
sS'application_parameters'
p1433
(dp1434
S'INPUTFORMAT'
p1435
S'AFP'
p1436
sVINSERTPLANID_9
p1437
S'000000'
p1438
sVINSERTPLANID_6
p1439
S'000000'
p1440
sVINSERTPLANID_7
p1441
S'000000'
p1442
sS'ISMANUAL'
p1443
g1411
sVINSERTPLANID_5
p1444
S'000000'
p1445
sVINSERTPLANID_2
p1446
S'000000'
p1447
sVINSERTPLANID_3
p1448
S'000000'
p1449
sVINSERTPLANID_1
p1450
S'000000'
p1451
sS'JOBFILEMASK'
p1452
g1381
sS'CARRIERID'
p1453
g1383
sS'OOM_COMPANYCODE'
p1454
g1399
sS'PRDWFKEY'
p1455
g1428
sVINSERTPLANID_8
p1456
S'000000'
p1457
sS'TRANSFERDIR'
p1458
S'/adf/data/traffic/transfer'
p1459
sS'ENDMAILDATE'
p1460
g105
sVINSERTPLANID_4
p1461
S'000000'
p1462
sS'OUTPUTFREQUENCYID'
p1463
g1385
sS'PRINTPROFILEUP6'
p1464
g105
sS'PLEX'
p1465
g1405
sS'JOB_RECEIVED_DATE'
p1466
S'20160927090011'
p1467
sVINSERTPLANID_V
p1468
S'000000'
p1469
sVINSERTPLANID_T
p1470
S'000000'
p1471
sVINSERTPLANID_U
p1472
S'000000'
p1473
sVINSERTPLANID_R
p1474
S'000000'
p1475
sVINSERTPLANID_S
p1476
S'000000'
p1477
sVINSERTPLANID_P
p1478
S'000000'
p1479
sVINSERTPLANID_Q
p1480
S'000000'
p1481
sVINSERTPLANID_N
p1482
S'000000'
p1483
sVINSERTPLANID_O
p1484
S'000000'
p1485
sVINSERTPLANID_L
p1486
S'000000'
p1487
sVINSERTPLANID_M
p1488
S'000000'
p1489
sVINSERTPLANID_J
p1490
S'000000'
p1491
sVINSERTPLANID_K
p1492
S'000000'
p1493
sVINSERTPLANID_H
p1494
S'000000'
p1495
sVINSERTPLANID_I
p1496
S'000000'
p1497
sVINSERTPLANID_F
p1498
S'000000'
p1499
sVINSERTPLANID_G
p1500
S'000000'
p1501
sVINSERTPLANID_D
p1502
S'000000'
p1503
sVINSERTPLANID_E
p1504
S'000000'
p1505
sVINSERTPLANID_B
p1506
S'000000'
p1507
sVINSERTPLANID_C
p1508
S'000000'
p1509
sVINSERTPLANID_A
p1510
S'000000'
p1511
ssssg13
(dp1512
g21
(dp1513
g23
S'CGI'
p1514
sg25
S'PPS'
p1515
sg27
S'SNC-NBSS-INPUT'
p1516
sg29
S'/adf/data/traffic/jobs/PPS/CGI/SNC-NBSS-INPUT/024195/30101411_2016-09-01_13-02-47.0_SNC_NBSS-1608310003-160831N_N_65MPark_View_Federal_Cr-218.pdf.afp.pkl'
p1517
ssg31
(dp1518
S'filemask_matched_db_record'
p1519
(dp1520
S'CGI_subCompanyCode'
p1521
VSINGLE
p1522
sS'specialInstructions'
p1523
VNBSS (NON-CERTIFIED-BLACK/WHITE-SIMPLEX-SINGLE) VALIDATE THIS FILE AGAINST FILE LISTING FROM SNC VALIDATE NUMBER OF PIECES LISTED IN FILE NAME TO PACKAGES VALIDATE PRINT QUALITY/PROPER STOCK USED VALIDATE CORRECT ENVELOPES ARE LOADED EACH MAIL PIECE IS ON
p1524
sS'CGI_lineOfBusiness'
p1525
VHO LOAN
p1526
sS'Notification'
p1527
Vtrue
p1528
sS'EscalationTime'
p1529
V00:00:00
p1530
sS'OOMLotCodeShort'
p1531
V10
p1532
sS'isProduction'
p1533
Vtrue
p1534
sS'insertMediaID'
p1535
V210
p1536
sS'printMediaID'
p1537
V316
p1538
sS'isDelete'
p1539
Vfalse
p1540
sS'PrintCount'
p1541
V1
p1542
sS'jobID'
p1543
V5288
p1544
sS'jobFileMask'
p1545
V*SNC_NBSS-*
p1546
sS'carrierID'
p1547
VO46D14D3B15SB
p1548
sS'outputFrequencyID'
p1549
VD
p1550
sS'CutoffTime'
p1551
V15:00:00
p1552
sS'SLAType'
p1553
VCUTOFF
p1554
sS'printOutputType'
p1555
VMC
p1556
sS'OOMProductCode'
p1557
VBLK
p1558
sS'SLADay'
p1559
V0
p1560
sS'insertPlanName'
p1561
VNO_PLAN
p1562
sS'OOM_companyCode'
p1563
VXSC
p1564
sS'CGI_lineOfBusinessDesc'
p1565
VLOAN NOTICES
p1566
sS'PrintType'
p1567
VContinuous
p1568
sS'plex'
p1569
VDUPLEX
p1570
sS'PrintProfileUP6'
p1571
Vnull
p1572
sS'envelopeID'
p1573
V21
p1574
sS'isManual'
p1575
Vfalse
p1576
sS'jobName'
p1577
V*SNC_NBSS-*
p1578
sS'OOMLotCode'
p1579
V10E
p1580
sS'SLAID'
p1581
V1
p1582
sS'postageID'
p1583
V44
p1584
sS'CGI_companyCode'
p1585
VSTATE NATIONAL
p1586
ssS'filemask_matched_list'
p1587
(lp1588
V*SNC_NBSS-*
p1589
asS'ERRORMESSAGE'
p1590
g105
sS'filemask_longest_match'
p1591
g1589
sS'prd_wf_key'
p1592
VSNC_NBSS-
p1593
sS'inputfilename'
p1594
S'30101411_2016-09-01_13-02-47.0_SNC_NBSS-1608310003-160831N_N_65MPark_View_Federal_Cr-218.pdf.afp'
p1595
sg1547
g1548
sS'inputfilepath'
p1596
S'/sefas/in/30101411_2016-09-01_13-02-47.0_SNC_NBSS-1608310003-160831N_N_65MPark_View_Federal_Cr-218.pdf.afp'
p1597
sS'application_parameters'
p1598
(dp1599
S'INPUTFORMAT'
p1600
S'AFP'
p1601
sVINSERTPLANID_9
p1602
S'000000'
p1603
sVINSERTPLANID_6
p1604
S'000000'
p1605
sVINSERTPLANID_7
p1606
S'000000'
p1607
sS'ISMANUAL'
p1608
g1576
sVINSERTPLANID_5
p1609
S'000000'
p1610
sVINSERTPLANID_2
p1611
S'000000'
p1612
sVINSERTPLANID_3
p1613
S'000000'
p1614
sVINSERTPLANID_1
p1615
S'000000'
p1616
sS'JOBFILEMASK'
p1617
g1546
sS'CARRIERID'
p1618
g1548
sS'OOM_COMPANYCODE'
p1619
g1564
sS'PRDWFKEY'
p1620
g1593
sVINSERTPLANID_8
p1621
S'000000'
p1622
sS'TRANSFERDIR'
p1623
S'/adf/data/traffic/transfer'
p1624
sS'ENDMAILDATE'
p1625
g105
sVINSERTPLANID_4
p1626
S'000000'
p1627
sS'OUTPUTFREQUENCYID'
p1628
g1550
sS'PRINTPROFILEUP6'
p1629
g105
sS'PLEX'
p1630
g1570
sS'JOB_RECEIVED_DATE'
p1631
S'20160927090011'
p1632
sVINSERTPLANID_V
p1633
S'000000'
p1634
sVINSERTPLANID_T
p1635
S'000000'
p1636
sVINSERTPLANID_U
p1637
S'000000'
p1638
sVINSERTPLANID_R
p1639
S'000000'
p1640
sVINSERTPLANID_S
p1641
S'000000'
p1642
sVINSERTPLANID_P
p1643
S'000000'
p1644
sVINSERTPLANID_Q
p1645
S'000000'
p1646
sVINSERTPLANID_N
p1647
S'000000'
p1648
sVINSERTPLANID_O
p1649
S'000000'
p1650
sVINSERTPLANID_L
p1651
S'000000'
p1652
sVINSERTPLANID_M
p1653
S'000000'
p1654
sVINSERTPLANID_J
p1655
S'000000'
p1656
sVINSERTPLANID_K
p1657
S'000000'
p1658
sVINSERTPLANID_H
p1659
S'000000'
p1660
sVINSERTPLANID_I
p1661
S'000000'
p1662
sVINSERTPLANID_F
p1663
S'000000'
p1664
sVINSERTPLANID_G
p1665
S'000000'
p1666
sVINSERTPLANID_D
p1667
S'000000'
p1668
sVINSERTPLANID_E
p1669
S'000000'
p1670
sVINSERTPLANID_B
p1671
S'000000'
p1672
sVINSERTPLANID_C
p1673
S'000000'
p1674
sVINSERTPLANID_A
p1675
S'000000'
p1676
ssssg14
(dp1677
g21
(dp1678
g23
S'CGI'
p1679
sg25
S'PPS'
p1680
sg27
S'SNC-NBSS-INPUT'
p1681
sg29
S'/adf/data/traffic/jobs/PPS/CGI/SNC-NBSS-INPUT/024198/30101462_2016-09-01_13-02-46.0_SNC_NBSS-1608310047-160831N_N_Y36Central_Bank_of_Boon-210.pdf.afp.pkl'
p1682
ssg31
(dp1683
S'filemask_matched_db_record'
p1684
(dp1685
S'CGI_subCompanyCode'
p1686
VSINGLE
p1687
sS'specialInstructions'
p1688
VNBSS (NON-CERTIFIED-BLACK/WHITE-SIMPLEX-SINGLE) VALIDATE THIS FILE AGAINST FILE LISTING FROM SNC VALIDATE NUMBER OF PIECES LISTED IN FILE NAME TO PACKAGES VALIDATE PRINT QUALITY/PROPER STOCK USED VALIDATE CORRECT ENVELOPES ARE LOADED EACH MAIL PIECE IS ON
p1689
sS'CGI_lineOfBusiness'
p1690
VHO LOAN
p1691
sS'Notification'
p1692
Vtrue
p1693
sS'EscalationTime'
p1694
V00:00:00
p1695
sS'OOMLotCodeShort'
p1696
V10
p1697
sS'isProduction'
p1698
Vtrue
p1699
sS'insertMediaID'
p1700
V210
p1701
sS'printMediaID'
p1702
V316
p1703
sS'isDelete'
p1704
Vfalse
p1705
sS'PrintCount'
p1706
V1
p1707
sS'jobID'
p1708
V5288
p1709
sS'jobFileMask'
p1710
V*SNC_NBSS-*
p1711
sS'carrierID'
p1712
VO46D14D3B15SB
p1713
sS'outputFrequencyID'
p1714
VD
p1715
sS'CutoffTime'
p1716
V15:00:00
p1717
sS'SLAType'
p1718
VCUTOFF
p1719
sS'printOutputType'
p1720
VMC
p1721
sS'OOMProductCode'
p1722
VBLK
p1723
sS'SLADay'
p1724
V0
p1725
sS'insertPlanName'
p1726
VNO_PLAN
p1727
sS'OOM_companyCode'
p1728
VXSC
p1729
sS'CGI_lineOfBusinessDesc'
p1730
VLOAN NOTICES
p1731
sS'PrintType'
p1732
VContinuous
p1733
sS'plex'
p1734
VDUPLEX
p1735
sS'PrintProfileUP6'
p1736
Vnull
p1737
sS'envelopeID'
p1738
V21
p1739
sS'isManual'
p1740
Vfalse
p1741
sS'jobName'
p1742
V*SNC_NBSS-*
p1743
sS'OOMLotCode'
p1744
V10E
p1745
sS'SLAID'
p1746
V1
p1747
sS'postageID'
p1748
V44
p1749
sS'CGI_companyCode'
p1750
VSTATE NATIONAL
p1751
ssS'filemask_matched_list'
p1752
(lp1753
V*SNC_NBSS-*
p1754
asS'ERRORMESSAGE'
p1755
g105
sS'filemask_longest_match'
p1756
g1754
sS'prd_wf_key'
p1757
VSNC_NBSS-
p1758
sS'inputfilename'
p1759
S'30101462_2016-09-01_13-02-46.0_SNC_NBSS-1608310047-160831N_N_Y36Central_Bank_of_Boon-210.pdf.afp'
p1760
sg1712
g1713
sS'inputfilepath'
p1761
S'/sefas/in/30101462_2016-09-01_13-02-46.0_SNC_NBSS-1608310047-160831N_N_Y36Central_Bank_of_Boon-210.pdf.afp'
p1762
sS'application_parameters'
p1763
(dp1764
S'INPUTFORMAT'
p1765
S'AFP'
p1766
sVINSERTPLANID_9
p1767
S'000000'
p1768
sVINSERTPLANID_6
p1769
S'000000'
p1770
sVINSERTPLANID_7
p1771
S'000000'
p1772
sS'ISMANUAL'
p1773
g1741
sVINSERTPLANID_5
p1774
S'000000'
p1775
sVINSERTPLANID_2
p1776
S'000000'
p1777
sVINSERTPLANID_3
p1778
S'000000'
p1779
sVINSERTPLANID_1
p1780
S'000000'
p1781
sS'JOBFILEMASK'
p1782
g1711
sS'CARRIERID'
p1783
g1713
sS'OOM_COMPANYCODE'
p1784
g1729
sS'PRDWFKEY'
p1785
g1758
sVINSERTPLANID_8
p1786
S'000000'
p1787
sS'TRANSFERDIR'
p1788
S'/adf/data/traffic/transfer'
p1789
sS'ENDMAILDATE'
p1790
g105
sVINSERTPLANID_4
p1791
S'000000'
p1792
sS'OUTPUTFREQUENCYID'
p1793
g1715
sS'PRINTPROFILEUP6'
p1794
g105
sS'PLEX'
p1795
g1735
sS'JOB_RECEIVED_DATE'
p1796
S'20160927090011'
p1797
sVINSERTPLANID_V
p1798
S'000000'
p1799
sVINSERTPLANID_T
p1800
S'000000'
p1801
sVINSERTPLANID_U
p1802
S'000000'
p1803
sVINSERTPLANID_R
p1804
S'000000'
p1805
sVINSERTPLANID_S
p1806
S'000000'
p1807
sVINSERTPLANID_P
p1808
S'000000'
p1809
sVINSERTPLANID_Q
p1810
S'000000'
p1811
sVINSERTPLANID_N
p1812
S'000000'
p1813
sVINSERTPLANID_O
p1814
S'000000'
p1815
sVINSERTPLANID_L
p1816
S'000000'
p1817
sVINSERTPLANID_M
p1818
S'000000'
p1819
sVINSERTPLANID_J
p1820
S'000000'
p1821
sVINSERTPLANID_K
p1822
S'000000'
p1823
sVINSERTPLANID_H
p1824
S'000000'
p1825
sVINSERTPLANID_I
p1826
S'000000'
p1827
sVINSERTPLANID_F
p1828
S'000000'
p1829
sVINSERTPLANID_G
p1830
S'000000'
p1831
sVINSERTPLANID_D
p1832
S'000000'
p1833
sVINSERTPLANID_E
p1834
S'000000'
p1835
sVINSERTPLANID_B
p1836
S'000000'
p1837
sVINSERTPLANID_C
p1838
S'000000'
p1839
sVINSERTPLANID_A
p1840
S'000000'
p1841
ssssg15
(dp1842
g21
(dp1843
g23
S'CGI'
p1844
sg25
S'PPS'
p1845
sg27
S'SNC-NBSS-INPUT'
p1846
sg29
S'/adf/data/traffic/jobs/PPS/CGI/SNC-NBSS-INPUT/024199/30101390_2016-09-01_13-02-39.0_SNC_NBSS-1608310001-160831N_N_21EFreedom_Credit_Union-171.pdf.afp.pkl'
p1847
ssg31
(dp1848
S'filemask_matched_db_record'
p1849
(dp1850
S'CGI_subCompanyCode'
p1851
VSINGLE
p1852
sS'specialInstructions'
p1853
VNBSS (NON-CERTIFIED-BLACK/WHITE-SIMPLEX-SINGLE) VALIDATE THIS FILE AGAINST FILE LISTING FROM SNC VALIDATE NUMBER OF PIECES LISTED IN FILE NAME TO PACKAGES VALIDATE PRINT QUALITY/PROPER STOCK USED VALIDATE CORRECT ENVELOPES ARE LOADED EACH MAIL PIECE IS ON
p1854
sS'CGI_lineOfBusiness'
p1855
VHO LOAN
p1856
sS'Notification'
p1857
Vtrue
p1858
sS'EscalationTime'
p1859
V00:00:00
p1860
sS'OOMLotCodeShort'
p1861
V10
p1862
sS'isProduction'
p1863
Vtrue
p1864
sS'insertMediaID'
p1865
V210
p1866
sS'printMediaID'
p1867
V316
p1868
sS'isDelete'
p1869
Vfalse
p1870
sS'PrintCount'
p1871
V1
p1872
sS'jobID'
p1873
V5288
p1874
sS'jobFileMask'
p1875
V*SNC_NBSS-*
p1876
sS'carrierID'
p1877
VO46D14D3B15SB
p1878
sS'outputFrequencyID'
p1879
VD
p1880
sS'CutoffTime'
p1881
V15:00:00
p1882
sS'SLAType'
p1883
VCUTOFF
p1884
sS'printOutputType'
p1885
VMC
p1886
sS'OOMProductCode'
p1887
VBLK
p1888
sS'SLADay'
p1889
V0
p1890
sS'insertPlanName'
p1891
VNO_PLAN
p1892
sS'OOM_companyCode'
p1893
VXSC
p1894
sS'CGI_lineOfBusinessDesc'
p1895
VLOAN NOTICES
p1896
sS'PrintType'
p1897
VContinuous
p1898
sS'plex'
p1899
VDUPLEX
p1900
sS'PrintProfileUP6'
p1901
Vnull
p1902
sS'envelopeID'
p1903
V21
p1904
sS'isManual'
p1905
Vfalse
p1906
sS'jobName'
p1907
V*SNC_NBSS-*
p1908
sS'OOMLotCode'
p1909
V10E
p1910
sS'SLAID'
p1911
V1
p1912
sS'postageID'
p1913
V44
p1914
sS'CGI_companyCode'
p1915
VSTATE NATIONAL
p1916
ssS'filemask_matched_list'
p1917
(lp1918
V*SNC_NBSS-*
p1919
asS'ERRORMESSAGE'
p1920
g105
sS'filemask_longest_match'
p1921
g1919
sS'prd_wf_key'
p1922
VSNC_NBSS-
p1923
sS'inputfilename'
p1924
S'30101390_2016-09-01_13-02-39.0_SNC_NBSS-1608310001-160831N_N_21EFreedom_Credit_Union-171.pdf.afp'
p1925
sg1877
g1878
sS'inputfilepath'
p1926
S'/sefas/in/30101390_2016-09-01_13-02-39.0_SNC_NBSS-1608310001-160831N_N_21EFreedom_Credit_Union-171.pdf.afp'
p1927
sS'application_parameters'
p1928
(dp1929
S'INPUTFORMAT'
p1930
S'AFP'
p1931
sVINSERTPLANID_9
p1932
S'000000'
p1933
sVINSERTPLANID_6
p1934
S'000000'
p1935
sVINSERTPLANID_7
p1936
S'000000'
p1937
sS'ISMANUAL'
p1938
g1906
sVINSERTPLANID_5
p1939
S'000000'
p1940
sVINSERTPLANID_2
p1941
S'000000'
p1942
sVINSERTPLANID_3
p1943
S'000000'
p1944
sVINSERTPLANID_1
p1945
S'000000'
p1946
sS'JOBFILEMASK'
p1947
g1876
sS'CARRIERID'
p1948
g1878
sS'OOM_COMPANYCODE'
p1949
g1894
sS'PRDWFKEY'
p1950
g1923
sVINSERTPLANID_8
p1951
S'000000'
p1952
sS'TRANSFERDIR'
p1953
S'/adf/data/traffic/transfer'
p1954
sS'ENDMAILDATE'
p1955
g105
sVINSERTPLANID_4
p1956
S'000000'
p1957
sS'OUTPUTFREQUENCYID'
p1958
g1880
sS'PRINTPROFILEUP6'
p1959
g105
sS'PLEX'
p1960
g1900
sS'JOB_RECEIVED_DATE'
p1961
S'20160927090011'
p1962
sVINSERTPLANID_V
p1963
S'000000'
p1964
sVINSERTPLANID_T
p1965
S'000000'
p1966
sVINSERTPLANID_U
p1967
S'000000'
p1968
sVINSERTPLANID_R
p1969
S'000000'
p1970
sVINSERTPLANID_S
p1971
S'000000'
p1972
sVINSERTPLANID_P
p1973
S'000000'
p1974
sVINSERTPLANID_Q
p1975
S'000000'
p1976
sVINSERTPLANID_N
p1977
S'000000'
p1978
sVINSERTPLANID_O
p1979
S'000000'
p1980
sVINSERTPLANID_L
p1981
S'000000'
p1982
sVINSERTPLANID_M
p1983
S'000000'
p1984
sVINSERTPLANID_J
p1985
S'000000'
p1986
sVINSERTPLANID_K
p1987
S'000000'
p1988
sVINSERTPLANID_H
p1989
S'000000'
p1990
sVINSERTPLANID_I
p1991
S'000000'
p1992
sVINSERTPLANID_F
p1993
S'000000'
p1994
sVINSERTPLANID_G
p1995
S'000000'
p1996
sVINSERTPLANID_D
p1997
S'000000'
p1998
sVINSERTPLANID_E
p1999
S'000000'
p2000
sVINSERTPLANID_B
p2001
S'000000'
p2002
sVINSERTPLANID_C
p2003
S'000000'
p2004
sVINSERTPLANID_A
p2005
S'000000'
p2006
sssss.